; Function Attrs: nounwind uwtable
define hidden void @_ir_UNREACHABLE(ptr nocapture noundef %0) local_unnamed_addr #0 {
  %2 = getelementptr inbounds i8, ptr %0, i64 248
  %3 = load i32, ptr %2, align 8
  %4 = load ptr, ptr %0, align 8
  %5 = getelementptr inbounds i8, ptr %4, i64 20
  %6 = load i32, ptr %5, align 4
  %7 = getelementptr inbounds i8, ptr %0, i64 8
  %8 = load i32, ptr %7, align 8
  %9 = getelementptr inbounds i8, ptr %0, i64 12
  %10 = load i32, ptr %9, align 4
  %.not.i.i.i = icmp slt i32 %8, %10
  br i1 %.not.i.i.i, label %ir_emit3.exit, label %11

11:                                               ; preds = %1
  %12 = getelementptr inbounds i8, ptr %0, i64 20
  %13 = load i32, ptr %12, align 4
  %14 = icmp slt i32 %10, 4096
  %15 = shl nsw i32 %10, 1
  %16 = icmp ult i32 %10, 8192
  %17 = add nuw nsw i32 %10, 4096
  %spec.select.i.i.i.i = select i1 %16, i32 8192, i32 %17
  %.sink.i.i.i.i = select i1 %14, i32 %15, i32 %spec.select.i.i.i.i
  store i32 %.sink.i.i.i.i, ptr %9, align 4
  %18 = sext i32 %13 to i64
  %19 = sub nsw i64 0, %18
  %20 = getelementptr inbounds %struct._ir_insn, ptr %4, i64 %19
  %21 = add nsw i32 %13, %.sink.i.i.i.i
  %22 = sext i32 %21 to i64
  %23 = shl nsw i64 %22, 4
  %24 = tail call ptr @_erealloc(ptr noundef %20, i64 noundef %23) #24
  %25 = load i32, ptr %12, align 4
  %26 = sext i32 %25 to i64
  %27 = getelementptr inbounds %struct._ir_insn, ptr %24, i64 %26
  store ptr %27, ptr %0, align 8
  br label %ir_emit3.exit

ir_emit3.exit:                                    ; preds = %1, %11
  %28 = phi ptr [ %4, %1 ], [ %27, %11 ]
  %29 = add nsw i32 %8, 1
  store i32 %29, ptr %7, align 8
  %30 = sext i32 %8 to i64
  %31 = getelementptr inbounds %struct._ir_insn, ptr %28, i64 %30
  store i32 104, ptr %31, align 8
  %32 = getelementptr inbounds i8, ptr %31, i64 4
  store i32 %3, ptr %32, align 4
  %33 = getelementptr inbounds i8, ptr %31, i64 8
  store i32 0, ptr %33, align 8
  %34 = getelementptr inbounds i8, ptr %31, i64 12
  store i32 %6, ptr %34, align 4
  %35 = load ptr, ptr %0, align 8
  %36 = getelementptr inbounds i8, ptr %35, i64 20
  store i32 %8, ptr %36, align 4
  store i32 0, ptr %2, align 8
  ret void
}